-----BEGIN CERTIFICATE-----
MIIE0zCCA7ugAwIBAgIQGNrRniZ96LtKIVjNzGs7SjANBgkqhkiG9w0BAQUFADCB
yjELMAkGA1UEBhMCVVMxFzAVBgNVBAoTDlZlcmlTaWduLCBJbmMuMR8wHQYDVQQL
ExZWZXJpU2lnbiBUcnVzdCBOZXR3b3JrMTowOAYDVQQLEzEoYykgMjAwNiBWZXJp
U2lnbiwgSW5jLiAtIEZvciBhdXRob3JpemVkIHVzZSBvbmx5MUUwQwYDVQQDEzxW
ZXJpU2lnbiBDbGFzcyAzIFB1YmxpYyBQcmltYXJ5IENlcnRpZmljYXRpb24gQXV0
aG9yaXR5IC0gRzUwHhcNMDYxMTA4MDAwMDAwWhcNMzYwNzE2MjM1OTU5WjCByjEL
MAkGA1UEBhMCVVMxFzAVBgNVBAoTDlZlcmlTaWduLCBJbmMuMR8wHQYDVQQLExZW
ZXJpU2lnbiBUcnVzdCBOZXR3b3JrMTowOAYDVQQLEzEoYykgMjAwNiBWZXJpU2ln
biwgSW5jLiAtIEZvciBhdXRob3JpemVkIHVzZSBvbmx5MUUwQwYDVQQDEzxWZXJp
U2lnbiBDbGFzcyAzIFB1YmxpYyBQcmltYXJ5IENlcnRpZmljYXRpb24gQXV0aG9y
aXR5IC0gRzUwggEiMA0GCSqGSIb3DQEBAQUAA4IBDwAwggEKAoIBAQCvJAgIKXo1
nmAMqudLO07cfLw8RRy7K+D+KQL5VwijZIUVJ/XxrcgxiV0i6CqqpkKzj/i5Vbex
t0uz/o9+B1fs70PbZmIVYc9gDaTY3vjgw2IIPVQT60nKWVSFJuUrjxuf6/WhkcIz
SdhDY2pSS9KP6HBRTdGJaXvHcPaz3BJ023tdS1bTlr8Vd6Gw9KIl8q8ckmcY5fQG
BO+QueQA5N06tRn/Arr0PO7gi+s3i+z016zy9vA9r911kTMZHRxAy3QkGSGT2RT+
rCpSx4/VBEnkjWNHiDxpg8v+R70rfk/Fla4OndTRQ8Bnc+MUCH7lP59zuDMKz10/
NIeWiu5T6CUVAgMBAAGjgbIwga8wDwYDVR0TAQH/BAUwAwEB/zAOBgNVHQ8BAf8E
BAMCAQYwbQYIKwYBBQUHAQwEYTBfoV2gWzBZMFcwVRYJaW1hZ2UvZ2lmMCEwHzAH
BgUrDgMCGgQUj+XTGoasjY5rw8+AatRIGCx7GS4wJRYjaHR0cDovL2xvZ28udmVy
aXNpZ24uY29tL3ZzbG9nby5naWYwHQYDVR0OBBYEFH/TZafC3ey78DAJ80M5+gKv
MzEzMA0GCSqGSIb3DQEBBQUAA4IBAQCTJEowX2LP2BqYLz3q3JktvXf2pXkiOOzE
p6B4Eq1iDkVwZMXnl2YtmAl+X6/WzChl8gGqCBpH3vn5fJJaCGkgDdk+bW48DW7Y
5gaRQBi5+MHt39tBquCWIMnNZBU4gcmU7qKEKQsTb47bDN0lAtukixlE0kF6BWlK
WE9gyn6CagsCqiUXObXbf+eEZSqVir2G3l6BFoMtEMze/aiCKm0oHw0LxOXnGiYZ
4fQRbxC1lfznQgUy286dUV4otp6F01vvpX1FQHKOtw5rDgb7MzVIcbidJ4vEZV8N
hnacRHr2lVz2XTIIM6RUthg/aFzyQkqFOFSDX9HoLPKsEdao7WNq
-----END CERTIFICATE-----
Certificate:
    Data:
        Version: 3 (0x2)
        Serial Number: 144470 (0x23456)
        Signature Algorithm: sha1WithRSAEncryption
        Issuer: C=US, O=GeoTrust Inc., CN=GeoTrust Global CA
        Validity
            Not Before: May 21 04:00:00 2002 GMT
            Not After : May 21 04:00:00 2022 GMT
        Subject: C=US, O=GeoTrust Inc., CN=GeoTrust Global CA
        Subject Public Key Info:
            Public Key Algorithm: rsaEncryption
            RSA Public Key: (2048 bit)
                Modulus (2048 bit):
                    00:da:cc:18:63:30:fd:f4:17:23:1a:56:7e:5b:df:
                    3c:6c:38:e4:71:b7:78:91:d4:bc:a1:d8:4c:f8:a8:
                    43:b6:03:e9:4d:21:07:08:88:da:58:2f:66:39:29:
                    bd:05:78:8b:9d:38:e8:05:b7:6a:7e:71:a4:e6:c4:
                    60:a6:b0:ef:80:e4:89:28:0f:9e:25:d6:ed:83:f3:
                    ad:a6:91:c7:98:c9:42:18:35:14:9d:ad:98:46:92:
                    2e:4f:ca:f1:87:43:c1:16:95:57:2d:50:ef:89:2d:
                    80:7a:57:ad:f2:ee:5f:6b:d2:00:8d:b9:14:f8:14:
                    15:35:d9:c0:46:a3:7b:72:c8:91:bf:c9:55:2b:cd:
                    d0:97:3e:9c:26:64:cc:df:ce:83:19:71:ca:4e:e6:
                    d4:d5:7b:a9:19:cd:55:de:c8:ec:d2:5e:38:53:e5:
                    5c:4f:8c:2d:fe:50:23:36:fc:66:e6:cb:8e:a4:39:
                    19:00:b7:95:02:39:91:0b:0e:fe:38:2e:d1:1d:05:
                    9a:f6:4d:3e:6f:0f:07:1d:af:2c:1e:8f:60:39:e2:
                    fa:36:53:13:39:d4:5e:26:2b:db:3d:a8:14:bd:32:
                    eb:18:03:28:52:04:71:e5:ab:33:3d:e1:38:bb:07:
                    36:84:62:9c:79:ea:16:30:f4:5f:c0:2b:e8:71:6b:
                    e4:f9
                Exponent: 65537 (0x10001)
        X509v3 extensions:
            X509v3 Basic Constraints: critical
                CA:TRUE
            X509v3 Subject Key Identifier:
                C0:7A:98:68:8D:89:FB:AB:05:64:0C:11:7D:AA:7D:65:B8:CA:CC:4E
            X509v3 Authority Key Identifier:
                keyid:C0:7A:98:68:8D:89:FB:AB:05:64:0C:11:7D:AA:7D:65:B8:CA:CC:4E
    Signature Algorithm: sha1WithRSAEncryption
        35:e3:29:6a:e5:2f:5d:54:8e:29:50:94:9f:99:1a:14:e4:8f:
        78:2a:62:94:a2:27:67:9e:d0:cf:1a:5e:47:e9:c1:b2:a4:cf:
        dd:41:1a:05:4e:9b:4b:ee:4a:6f:55:52:b3:24:a1:37:0a:eb:
        64:76:2a:2e:2c:f3:fd:3b:75:90:bf:fa:71:d8:c7:3d:37:d2:
        b5:05:95:62:b9:a6:de:89:3d:36:7b:38:77:48:97:ac:a6:20:
        8f:2e:a6:c9:0c:c2:b2:99:45:00:c7:ce:11:51:22:22:e0:a5:
        ea:b6:15:48:09:64:ea:5e:4f:74:f7:05:3e:c7:8a:52:0c:db:
        15:b4:bd:6d:9b:e5:c6:b1:54:68:a9:e3:69:90:b6:9a:a5:0f:
        b8:b9:3f:20:7d:ae:4a:b5:b8:9c:e4:1d:b6:ab:e6:94:a5:c1:
        c7:83:ad:db:f5:27:87:0e:04:6c:d5:ff:dd:a0:5d:ed:87:52:
        b7:2b:15:02:ae:39:a6:6a:74:e9:da:c4:e7:bc:4d:34:1e:a9:
        5c:4d:33:5f:92:09:2f:88:66:5d:77:97:c7:1d:76:13:a9:d5:
        e5:f1:16:09:11:35:d5:ac:db:24:71:70:2c:98:56:0b:d9:17:
        b4:d1:e3:51:2b:5e:75:e8:d5:d0:dc:4f:34:ed:c2:05:66:80:
        a1:cb:e6:33
-----BEGIN CERTIFICATE-----
MIIDVDCCAjygAwIBAgIDAjRWMA0GCSqGSIb3DQEBBQUAMEIxCzAJBgNVBAYTAlVT
MRYwFAYDVQQKEw1HZW9UcnVzdCBJbmMuMRswGQYDVQQDExJHZW9UcnVzdCBHbG9i
YWwgQ0EwHhcNMDIwNTIxMDQwMDAwWhcNMjIwNTIxMDQwMDAwWjBCMQswCQYDVQQG
EwJVUzEWMBQGA1UEChMNR2VvVHJ1c3QgSW5jLjEbMBkGA1UEAxMSR2VvVHJ1c3Qg
R2xvYmFsIENBMIIBIjANBgkqhkiG9w0BAQEFAAOCAQ8AMIIBCgKCAQEA2swYYzD9
9BcjGlZ+W988bDjkcbd4kdS8odhM+KhDtgPpTSEHCIjaWC9mOSm9BXiLnTjoBbdq
fnGk5sRgprDvgOSJKA+eJdbtg/OtppHHmMlCGDUUna2YRpIuT8rxh0PBFpVXLVDv
iS2Aelet8u5fa9IAjbkU+BQVNdnARqN7csiRv8lVK83Qlz6cJmTM386DGXHKTubU
1XupGc1V3sjs0l44U+VcT4wt/lAjNvxm5suOpDkZALeVAjmRCw7+OC7RHQWa9k0+
bw8HHa8sHo9gOeL6NlMTOdReJivbPagUvTLrGAMoUgRx5aszPeE4uwc2hGKceeoW
MPRfwCvocWvk+QIDAQABo1MwUTAPBgNVHRMBAf8EBTADAQH/MB0GA1UdDgQWBBTA
ephojYn7qwVkDBF9qn1luMrMTjAfBgNVHSMEGDAWgBTAephojYn7qwVkDBF9qn1l
uMrMTjANBgkqhkiG9w0BAQUFAAOCAQEANeMpauUvXVSOKVCUn5kaFOSPeCpilKIn
Z57QzxpeR+nBsqTP3UEaBU6bS+5Kb1VSsyShNwrrZHYqLizz/Tt1kL/6cdjHPTfS
tQWVYrmm3ok9Nns4d0iXrKYgjy6myQzCsplFAMfOEVEiIuCl6rYVSAlk6l5PdPcF
PseKUgzbFbS9bZvlxrFUaKnjaZC2mqUPuLk/IH2uSrW4nOQdtqvmlKXBx4Ot2/Un
hw4EbNX/3aBd7YdStysVAq45pmp06drE57xNNB6pXE0zX5IJL4hmXXeXxx12E6nV
5fEWCRE11azbJHFwLJhWC9kXtNHjUStedejV0NxPNO3CBWaAocvmMw==
-----END CERTIFICATE-----
Certificate:
    Data:
        Version: 3 (0x2)
        Serial Number: 33554617 (0x20000b9)
        Signature Algorithm: sha1WithRSAEncryption
        Issuer: C=IE, O=Baltimore, OU=CyberTrust, CN=Baltimore CyberTrust Root
        Validity
            Not Before: May 12 18:46:00 2000 GMT
            Not After : May 12 23:59:00 2025 GMT
        Subject: C=IE, O=Baltimore, OU=CyberTrust, CN=Baltimore CyberTrust Root
        Subject Public Key Info:
            Public Key Algorithm: rsaEncryption
            RSA Public Key: (2048 bit)
                Modulus (2048 bit):
                    00:a3:04:bb:22:ab:98:3d:57:e8:26:72:9a:b5:79:
                    d4:29:e2:e1:e8:95:80:b1:b0:e3:5b:8e:2b:29:9a:
                    64:df:a1:5d:ed:b0:09:05:6d:db:28:2e:ce:62:a2:
                    62:fe:b4:88:da:12:eb:38:eb:21:9d:c0:41:2b:01:
                    52:7b:88:77:d3:1c:8f:c7:ba:b9:88:b5:6a:09:e7:
                    73:e8:11:40:a7:d1:cc:ca:62:8d:2d:e5:8f:0b:a6:
                    50:d2:a8:50:c3:28:ea:f5:ab:25:87:8a:9a:96:1c:
                    a9:67:b8:3f:0c:d5:f7:f9:52:13:2f:c2:1b:d5:70:
                    70:f0:8f:c0:12:ca:06:cb:9a:e1:d9:ca:33:7a:77:
                    d6:f8:ec:b9:f1:68:44:42:48:13:d2:c0:c2:a4:ae:
                    5e:60:fe:b6:a6:05:fc:b4:dd:07:59:02:d4:59:18:
                    98:63:f5:a5:63:e0:90:0c:7d:5d:b2:06:7a:f3:85:
                    ea:eb:d4:03:ae:5e:84:3e:5f:ff:15:ed:69:bc:f9:
                    39:36:72:75:cf:77:52:4d:f3:c9:90:2c:b9:3d:e5:
                    c9:23:53:3f:1f:24:98:21:5c:07:99:29:bd:c6:3a:
                    ec:e7:6e:86:3a:6b:97:74:63:33:bd:68:18:31:f0:
                    78:8d:76:bf:fc:9e:8e:5d:2a:86:a7:4d:90:dc:27:
                    1a:39
                Exponent: 65537 (0x10001)
        X509v3 extensions:
            X509v3 Subject Key Identifier: 
                E5:9D:59:30:82:47:58:CC:AC:FA:08:54:36:86:7B:3A:B5:04:4D:F0
            X509v3 Basic Constraints: critical
                CA:TRUE, pathlen:3
            X509v3 Key Usage: critical
                Certificate Sign, CRL Sign
    Signature Algorithm: sha1WithRSAEncryption
        85:0c:5d:8e:e4:6f:51:68:42:05:a0:dd:bb:4f:27:25:84:03:
        bd:f7:64:fd:2d:d7:30:e3:a4:10:17:eb:da:29:29:b6:79:3f:
        76:f6:19:13:23:b8:10:0a:f9:58:a4:d4:61:70:bd:04:61:6a:
        12:8a:17:d5:0a:bd:c5:bc:30:7c:d6:e9:0c:25:8d:86:40:4f:
        ec:cc:a3:7e:38:c6:37:11:4f:ed:dd:68:31:8e:4c:d2:b3:01:
        74:ee:be:75:5e:07:48:1a:7f:70:ff:16:5c:84:c0:79:85:b8:
        05:fd:7f:be:65:11:a3:0f:c0:02:b4:f8:52:37:39:04:d5:a9:
        31:7a:18:bf:a0:2a:f4:12:99:f7:a3:45:82:e3:3c:5e:f5:9d:
        9e:b5:c8:9e:7c:2e:c8:a4:9e:4e:08:14:4b:6d:fd:70:6d:6b:
        1a:63:bd:64:e6:1f:b7:ce:f0:f2:9f:2e:bb:1b:b7:f2:50:88:
        73:92:c2:e2:e3:16:8d:9a:32:02:ab:8e:18:dd:e9:10:11:ee:
        7e:35:ab:90:af:3e:30:94:7a:d0:33:3d:a7:65:0f:f5:fc:8e:
        9e:62:cf:47:44:2c:01:5d:bb:1d:b5:32:d2:47:d2:38:2e:d0:
        fe:81:dc:32:6a:1e:b5:ee:3c:d5:fc:e7:81:1d:19:c3:24:42:
        ea:63:39:a9
-----BEGIN CERTIFICATE-----
MIIDdzCCAl+gAwIBAgIEAgAAuTANBgkqhkiG9w0BAQUFADBaMQswCQYDVQQGEwJJ
RTESMBAGA1UEChMJQmFsdGltb3JlMRMwEQYDVQQLEwpDeWJlclRydXN0MSIwIAYD
VQQDExlCYWx0aW1vcmUgQ3liZXJUcnVzdCBSb290MB4XDTAwMDUxMjE4NDYwMFoX
DTI1MDUxMjIzNTkwMFowWjELMAkGA1UEBhMCSUUxEjAQBgNVBAoTCUJhbHRpbW9y
ZTETMBEGA1UECxMKQ3liZXJUcnVzdDEiMCAGA1UEAxMZQmFsdGltb3JlIEN5YmVy
VHJ1c3QgUm9vdDCCASIwDQYJKoZIhvcNAQEBBQADggEPADCCAQoCggEBAKMEuyKr
mD1X6CZymrV51Cni4eiVgLGw41uOKymaZN+hXe2wCQVt2yguzmKiYv60iNoS6zjr
IZ3AQSsBUnuId9Mcj8e6uYi1agnnc+gRQKfRzMpijS3ljwumUNKoUMMo6vWrJYeK
mpYcqWe4PwzV9/lSEy/CG9VwcPCPwBLKBsua4dnKM3p31vjsufFoREJIE9LAwqSu
XmD+tqYF/LTdB1kC1FkYmGP1pWPgkAx9XbIGevOF6uvUA65ehD5f/xXtabz5OTZy
dc93Uk3zyZAsuT3lySNTPx8kmCFcB5kpvcY67Oduhjprl3RjM71oGDHweI12v/ye
jl0qhqdNkNwnGjkCAwEAAaNFMEMwHQYDVR0OBBYEFOWdWTCCR1jMrPoIVDaGezq1
BE3wMBIGA1UdEwEB/wQIMAYBAf8CAQMwDgYDVR0PAQH/BAQDAgEGMA0GCSqGSIb3
DQEBBQUAA4IBAQCFDF2O5G9RaEIFoN27TyclhAO992T9Ldcw46QQF+vaKSm2eT92
9hkTI7gQCvlYpNRhcL0EYWoSihfVCr3FvDB81ukMJY2GQE/szKN+OMY3EU/t3Wgx
jkzSswF07r51XgdIGn9w/xZchMB5hbgF/X++ZRGjD8ACtPhSNzkE1akxehi/oCr0
Epn3o0WC4zxe9Z2etciefC7IpJ5OCBRLbf1wbWsaY71k5h+3zvDyny67G7fyUIhz
ksLi4xaNmjICq44Y3ekQEe5+NauQrz4wlHrQMz2nZQ/1/I6eYs9HRCwBXbsdtTLS
R9I4LtD+gdwyah617jzV/OeBHRnDJELqYzmp
-----END CERTIFICATE-----
Certificate:
    Data:
        Version: 1 (0x0)
        Serial Number: 421 (0x1a5)
        Signature Algorithm: md5WithRSAEncryption
        Issuer: C=US, O=GTE Corporation, OU=GTE CyberTrust Solutions, Inc., CN=GTE CyberTrust Global Root
        Validity
            Not Before: Aug 13 00:29:00 1998 GMT
            Not After : Aug 13 23:59:00 2018 GMT
        Subject: C=US, O=GTE Corporation, OU=GTE CyberTrust Solutions, Inc., CN=GTE CyberTrust Global Root
        Subject Public Key Info:
            Public Key Algorithm: rsaEncryption
            RSA Public Key: (1024 bit)
                Modulus (1024 bit):
                    00:95:0f:a0:b6:f0:50:9c:e8:7a:c7:88:cd:dd:17:
                    0e:2e:b0:94:d0:1b:3d:0e:f6:94:c0:8a:94:c7:06:
                    c8:90:97:c8:b8:64:1a:7a:7e:6c:3c:53:e1:37:28:
                    73:60:7f:b2:97:53:07:9f:53:f9:6d:58:94:d2:af:
                    8d:6d:88:67:80:e6:ed:b2:95:cf:72:31:ca:a5:1c:
                    72:ba:5c:02:e7:64:42:e7:f9:a9:2c:d6:3a:0d:ac:
                    8d:42:aa:24:01:39:e6:9c:3f:01:85:57:0d:58:87:
                    45:f8:d3:85:aa:93:69:26:85:70:48:80:3f:12:15:
                    c7:79:b4:1f:05:2f:3b:62:99
                Exponent: 65537 (0x10001)
    Signature Algorithm: md5WithRSAEncryption
        6d:eb:1b:09:e9:5e:d9:51:db:67:22:61:a4:2a:3c:48:77:e3:
        a0:7c:a6:de:73:a2:14:03:85:3d:fb:ab:0e:30:c5:83:16:33:
        81:13:08:9e:7b:34:4e:df:40:c8:74:d7:b9:7d:dc:f4:76:55:
        7d:9b:63:54:18:e9:f0:ea:f3:5c:b1:d9:8b:42:1e:b9:c0:95:
        4e:ba:fa:d5:e2:7c:f5:68:61:bf:8e:ec:05:97:5f:5b:b0:d7:
        a3:85:34:c4:24:a7:0d:0f:95:93:ef:cb:94:d8:9e:1f:9d:5c:
        85:6d:c7:aa:ae:4f:1f:22:b5:cd:95:ad:ba:a7:cc:f9:ab:0b:
        7a:7f
-----BEGIN CERTIFICATE-----
MIICWjCCAcMCAgGlMA0GCSqGSIb3DQEBBAUAMHUxCzAJBgNVBAYTAlVTMRgwFgYD
VQQKEw9HVEUgQ29ycG9yYXRpb24xJzAlBgNVBAsTHkdURSBDeWJlclRydXN0IFNv
bHV0aW9ucywgSW5jLjEjMCEGA1UEAxMaR1RFIEN5YmVyVHJ1c3QgR2xvYmFsIFJv
b3QwHhcNOTgwODEzMDAyOTAwWhcNMTgwODEzMjM1OTAwWjB1MQswCQYDVQQGEwJV
UzEYMBYGA1UEChMPR1RFIENvcnBvcmF0aW9uMScwJQYDVQQLEx5HVEUgQ3liZXJU
cnVzdCBTb2x1dGlvbnMsIEluYy4xIzAhBgNVBAMTGkdURSBDeWJlclRydXN0IEds
b2JhbCBSb290MIGfMA0GCSqGSIb3DQEBAQUAA4GNADCBiQKBgQCVD6C28FCc6HrH
iM3dFw4usJTQGz0O9pTAipTHBsiQl8i4ZBp6fmw8U+E3KHNgf7KXUwefU/ltWJTS
r41tiGeA5u2ylc9yMcqlHHK6XALnZELn+aks1joNrI1CqiQBOeacPwGFVw1Yh0X4
04Wqk2kmhXBIgD8SFcd5tB8FLztimQIDAQABMA0GCSqGSIb3DQEBBAUAA4GBAG3r
GwnpXtlR22ciYaQqPEh346B8pt5zohQDhT37qw4wxYMWM4ETCJ57NE7fQMh017l9
3PR2VX2bY1QY6fDq81yx2YtCHrnAlU66+tXifPVoYb+O7AWXX1uw16OFNMQkpw0P
lZPvy5TYnh+dXIVtx6quTx8itc2VrbqnzPmrC3p/
-----END CERTIFICATE-----
Certificate:
    Data:
        Version: 1 (0x0)
        Serial Number:
            70:ba:e4:1d:10:d9:29:34:b6:38:ca:7b:03:cc:ba:bf
        Signature Algorithm: md2WithRSAEncryption
        Issuer: C=US, O=VeriSign, Inc., OU=Class 3 Public Primary Certification Authority
        Validity
            Not Before: Jan 29 00:00:00 1996 GMT
            Not After : Aug  1 23:59:59 2028 GMT
        Subject: C=US, O=VeriSign, Inc., OU=Class 3 Public Primary Certification Authority
        Subject Public Key Info:
            Public Key Algorithm: rsaEncryption
            RSA Public Key: (1024 bit)
                Modulus (1024 bit):
                    00:c9:5c:59:9e:f2:1b:8a:01:14:b4:10:df:04:40:
                    db:e3:57:af:6a:45:40:8f:84:0c:0b:d1:33:d9:d9:
                    11:cf:ee:02:58:1f:25:f7:2a:a8:44:05:aa:ec:03:
                    1f:78:7f:9e:93:b9:9a:00:aa:23:7d:d6:ac:85:a2:
                    63:45:c7:72:27:cc:f4:4c:c6:75:71:d2:39:ef:4f:
                    42:f0:75:df:0a:90:c6:8e:20:6f:98:0f:f8:ac:23:
                    5f:70:29:36:a4:c9:86:e7:b1:9a:20:cb:53:a5:85:
                    e7:3d:be:7d:9a:fe:24:45:33:dc:76:15:ed:0f:a2:
                    71:64:4c:65:2e:81:68:45:a7
                Exponent: 65537 (0x10001)
    Signature Algorithm: md2WithRSAEncryption
        bb:4c:12:2b:cf:2c:26:00:4f:14:13:dd:a6:fb:fc:0a:11:84:
        8c:f3:28:1c:67:92:2f:7c:b6:c5:fa:df:f0:e8:95:bc:1d:8f:
        6c:2c:a8:51:cc:73:d8:a4:c0:53:f0:4e:d6:26:c0:76:01:57:
        81:92:5e:21:f1:d1:b1:ff:e7:d0:21:58:cd:69:17:e3:44:1c:
        9c:19:44:39:89:5c:dc:9c:00:0f:56:8d:02:99:ed:a2:90:45:
        4c:e4:bb:10:a4:3d:f0:32:03:0e:f1:ce:f8:e8:c9:51:8c:e6:
        62:9f:e6:9f:c0:7d:b7:72:9c:c9:36:3a:6b:9f:4e:a8:ff:64:
        0d:64
-----BEGIN CERTIFICATE-----
MIICPDCCAaUCEHC65B0Q2Sk0tjjKewPMur8wDQYJKoZIhvcNAQECBQAwXzELMAkG
A1UEBhMCVVMxFzAVBgNVBAoTDlZlcmlTaWduLCBJbmMuMTcwNQYDVQQLEy5DbGFz
cyAzIFB1YmxpYyBQcmltYXJ5IENlcnRpZmljYXRpb24gQXV0aG9yaXR5MB4XDTk2
MDEyOTAwMDAwMFoXDTI4MDgwMTIzNTk1OVowXzELMAkGA1UEBhMCVVMxFzAVBgNV
BAoTDlZlcmlTaWduLCBJbmMuMTcwNQYDVQQLEy5DbGFzcyAzIFB1YmxpYyBQcmlt
YXJ5IENlcnRpZmljYXRpb24gQXV0aG9yaXR5MIGfMA0GCSqGSIb3DQEBAQUAA4GN
ADCBiQKBgQDJXFme8huKARS0EN8EQNvjV69qRUCPhAwL0TPZ2RHP7gJYHyX3KqhE
BarsAx94f56TuZoAqiN91qyFomNFx3InzPRMxnVx0jnvT0Lwdd8KkMaOIG+YD/is
I19wKTakyYbnsZogy1Olhec9vn2a/iRFM9x2Fe0PonFkTGUugWhFpwIDAQABMA0G
CSqGSIb3DQEBAgUAA4GBALtMEivPLCYATxQT3ab7/AoRhIzzKBxnki98tsX63/Do
lbwdj2wsqFHMc9ikwFPwTtYmwHYBV4GSXiHx0bH/59AhWM1pF+NEHJwZRDmJXNyc
AA9WjQKZ7aKQRUzkuxCkPfAyAw7xzvjoyVGM5mKf5p/AfbdynMk2OmufTqj/ZA1k
-----END CERTIFICATE-----
